target datalayout = "e-m:e-p270:32:32-p271:32:32-p272:64:64-i64:64-i128:128-f80:128-n8:16:32:64-S128"
target triple = "x86_64-unknown-linux-gnu"

%struct.QTailQLink = type { ptr, ptr }
%struct.GraphLockableMainloop = type {}
%struct.BDRVReopenState = type { ptr, i32, i32, i8, ptr, ptr, ptr, ptr, ptr }
%struct.BlockDriverState = type { i32, i8, i8, i8, i8, i8, ptr, ptr, ptr, %struct.anon.0, i8, [4096 x i8], [4096 x i8], [4096 x i8], [16 x i8], ptr, [4096 x i8], %struct.BlockLimits, i32, i32, i32, i32, [32 x i8], %union.anon.1, %union.anon.2, %union.anon.3, i32, [16 x %struct.anon.4], ptr, %struct.anon.5, ptr, ptr, %struct.anon.6, ptr, ptr, i32, ptr, i64, i64, %struct.QemuMutex, %struct.anon.7, %struct.Stat64, i32, i32, i32, i32, i32, i32, %struct.QemuMutex, %struct.anon.8, %struct.CoQueue, i8, i32, i8, %struct.CoMutex, ptr, ptr }
%struct.anon.0 = type { ptr }
%struct.BlockLimits = type { i32, i64, i32, i64, i32, i32, i32, i64, i32, i64, i64, i32, i8, i32, i32, i32, i32, i32, i32, i32 }
%union.anon.1 = type { %struct.QTailQLink }
%union.anon.2 = type { %struct.QTailQLink }
%union.anon.3 = type { %struct.QTailQLink }
%struct.anon.4 = type { ptr }
%struct.anon.5 = type { ptr }
%struct.anon.6 = type { ptr }
%struct.anon.7 = type { ptr }
%struct.Stat64 = type { i64 }
%struct.QemuMutex = type { %union.pthread_mutex_t, i8 }
%union.pthread_mutex_t = type { %struct.__pthread_mutex_s }
%struct.__pthread_mutex_s = type { i32, i32, i32, i32, i32, i16, i16, %struct.__pthread_internal_list }
%struct.__pthread_internal_list = type { ptr, ptr }
%struct.anon.8 = type { ptr }
%struct.CoQueue = type { %struct.anon.9 }
%struct.anon.9 = type { ptr, ptr }
%struct.CoMutex = type { i32, ptr, %struct.anon.10, %struct.anon.10, i32, i32, ptr }
%struct.anon.10 = type { ptr }
%struct.BDRVVmdkState = type { %struct.CoMutex, i64, i8, i8, i32, i32, i32, ptr, ptr, ptr }
%struct.BDRVVmdkReopenState = type { ptr }
%struct.VmdkExtent = type { ptr, i8, i8, i8, i8, i8, i64, i64, i32, i32, i64, i64, i64, i64, i64, ptr, ptr, i32, i32, i32, ptr, [16 x i32], [16 x i32], i64, i64, ptr }

@.str.23 = private unnamed_addr constant [22 x i8] c"qemu_in_main_thread()\00", align 1
@.str.24 = private unnamed_addr constant [21 x i8] c"../qemu/block/vmdk.c\00", align 1
@__PRETTY_FUNCTION__.vmdk_reopen_prepare = private unnamed_addr constant [73 x i8] c"int vmdk_reopen_prepare(BDRVReopenState *, BlockReopenQueue *, Error **)\00", align 1
@.str.25 = private unnamed_addr constant [14 x i8] c"state != NULL\00", align 1
@.str.26 = private unnamed_addr constant [18 x i8] c"state->bs != NULL\00", align 1
@.str.27 = private unnamed_addr constant [22 x i8] c"state->opaque == NULL\00", align 1

; Function Attrs: nounwind sspstrong uwtable
define internal void @graph_lockable_auto_unlock_mainloop(ptr noundef %x) #0 {
entry:
  %x.addr = alloca ptr, align 8
  store ptr %x, ptr %x.addr, align 8
  call void @bdrv_graph_rdunlock_main_loop()
  ret void
}

; Function Attrs: nounwind sspstrong uwtable
define internal void @glib_autoptr_clear_GraphLockableMainloop(ptr noundef %_ptr) #0 {
entry:
  %_ptr.addr = alloca ptr, align 8
  store ptr %_ptr, ptr %_ptr.addr, align 8
  %0 = load ptr, ptr %_ptr.addr, align 8
  %tobool = icmp ne ptr %0, null
  br i1 %tobool, label %if.then, label %if.end

if.then:                                          ; preds = %entry
  %1 = load ptr, ptr %_ptr.addr, align 8
  call void @graph_lockable_auto_unlock_mainloop(ptr noundef %1)
  br label %if.end

if.end:                                           ; preds = %if.then, %entry
  ret void
}

; Function Attrs: nounwind sspstrong uwtable
define internal void @glib_autoptr_cleanup_GraphLockableMainloop(ptr noundef %_ptr) #0 {
entry:
  %_ptr.addr = alloca ptr, align 8
  store ptr %_ptr, ptr %_ptr.addr, align 8
  %0 = load ptr, ptr %_ptr.addr, align 8
  %1 = load ptr, ptr %0, align 8
  call void @glib_autoptr_clear_GraphLockableMainloop(ptr noundef %1)
  ret void
}

; Function Attrs: nounwind sspstrong uwtable
define internal ptr @graph_lockable_auto_lock_mainloop(ptr noundef %x) #0 {
entry:
  %x.addr = alloca ptr, align 8
  store ptr %x, ptr %x.addr, align 8
  call void @bdrv_graph_rdlock_main_loop()
  %0 = load ptr, ptr %x.addr, align 8
  ret ptr %0
}

; Function Attrs: nounwind sspstrong uwtable
define internal i32 @vmdk_reopen_prepare(ptr noundef %state, ptr noundef %queue, ptr noundef %errp) #0 {
entry:
  %state.addr = alloca ptr, align 8
  %queue.addr = alloca ptr, align 8
  %errp.addr = alloca ptr, align 8
  %s = alloca ptr, align 8
  %rs = alloca ptr, align 8
  %i = alloca i32, align 4
  %graph_lockable_auto4 = alloca ptr, align 8
  %.compoundliteral = alloca %struct.GraphLockableMainloop, align 1
  store ptr %state, ptr %state.addr, align 8
  store ptr %queue, ptr %queue.addr, align 8
  store ptr %errp, ptr %errp.addr, align 8
  br label %do.body

do.body:                                          ; preds = %entry
  %call = call zeroext i1 @qemu_in_main_thread()
  br i1 %call, label %if.then, label %if.else

if.then:                                          ; preds = %do.body
  br label %if.end

if.else:                                          ; preds = %do.body
  call void @__assert_fail(ptr noundef @.str.23, ptr noundef @.str.24, i32 noundef 431, ptr noundef @__PRETTY_FUNCTION__.vmdk_reopen_prepare) #10
  unreachable

if.end:                                           ; preds = %if.then
  br label %do.end

do.end:                                           ; preds = %if.end
  %call1 = call ptr @graph_lockable_auto_lock_mainloop(ptr noundef %.compoundliteral)
  store ptr %call1, ptr %graph_lockable_auto4, align 8
  %0 = load ptr, ptr %state.addr, align 8
  %cmp = icmp ne ptr %0, null
  br i1 %cmp, label %if.then2, label %if.else3

if.then2:                                         ; preds = %do.end
  br label %if.end4

if.else3:                                         ; preds = %do.end
  call void @__assert_fail(ptr noundef @.str.25, ptr noundef @.str.24, i32 noundef 434, ptr noundef @__PRETTY_FUNCTION__.vmdk_reopen_prepare) #10
  unreachable

if.end4:                                          ; preds = %if.then2
  %1 = load ptr, ptr %state.addr, align 8
  %bs = getelementptr inbounds %struct.BDRVReopenState, ptr %1, i32 0, i32 0
  %2 = load ptr, ptr %bs, align 8
  %cmp5 = icmp ne ptr %2, null
  br i1 %cmp5, label %if.then6, label %if.else7

if.then6:                                         ; preds = %if.end4
  br label %if.end8

if.else7:                                         ; preds = %if.end4
  call void @__assert_fail(ptr noundef @.str.26, ptr noundef @.str.24, i32 noundef 435, ptr noundef @__PRETTY_FUNCTION__.vmdk_reopen_prepare) #10
  unreachable

if.end8:                                          ; preds = %if.then6
  %3 = load ptr, ptr %state.addr, align 8
  %opaque = getelementptr inbounds %struct.BDRVReopenState, ptr %3, i32 0, i32 8
  %4 = load ptr, ptr %opaque, align 8
  %cmp9 = icmp eq ptr %4, null
  br i1 %cmp9, label %if.then10, label %if.else11

if.then10:                                        ; preds = %if.end8
  br label %if.end12

if.else11:                                        ; preds = %if.end8
  call void @__assert_fail(ptr noundef @.str.27, ptr noundef @.str.24, i32 noundef 436, ptr noundef @__PRETTY_FUNCTION__.vmdk_reopen_prepare) #10
  unreachable

if.end12:                                         ; preds = %if.then10
  %5 = load ptr, ptr %state.addr, align 8
  %bs13 = getelementptr inbounds %struct.BDRVReopenState, ptr %5, i32 0, i32 0
  %6 = load ptr, ptr %bs13, align 8
  %opaque14 = getelementptr inbounds %struct.BlockDriverState, ptr %6, i32 0, i32 7
  %7 = load ptr, ptr %opaque14, align 8
  store ptr %7, ptr %s, align 8
  %call15 = call noalias ptr @g_malloc0_n(i64 noundef 1, i64 noundef 8) #11
  store ptr %call15, ptr %rs, align 8
  %8 = load ptr, ptr %rs, align 8
  %9 = load ptr, ptr %state.addr, align 8
  %opaque16 = getelementptr inbounds %struct.BDRVReopenState, ptr %9, i32 0, i32 8
  store ptr %8, ptr %opaque16, align 8
  %10 = load ptr, ptr %s, align 8
  %num_extents = getelementptr inbounds %struct.BDRVVmdkState, ptr %10, i32 0, i32 6
  %11 = load i32, ptr %num_extents, align 4
  %conv = sext i32 %11 to i64
  %call17 = call noalias ptr @g_malloc_n(i64 noundef %conv, i64 noundef 1) #11
  %12 = load ptr, ptr %rs, align 8
  %extents_using_bs_file = getelementptr inbounds %struct.BDRVVmdkReopenState, ptr %12, i32 0, i32 0
  store ptr %call17, ptr %extents_using_bs_file, align 8
  store i32 0, ptr %i, align 4
  br label %for.cond

for.cond:                                         ; preds = %for.inc, %if.end12
  %13 = load i32, ptr %i, align 4
  %14 = load ptr, ptr %s, align 8
  %num_extents18 = getelementptr inbounds %struct.BDRVVmdkState, ptr %14, i32 0, i32 6
  %15 = load i32, ptr %num_extents18, align 4
  %cmp19 = icmp slt i32 %13, %15
  br i1 %cmp19, label %for.body, label %for.end

for.body:                                         ; preds = %for.cond
  %16 = load ptr, ptr %s, align 8
  %extents = getelementptr inbounds %struct.BDRVVmdkState, ptr %16, i32 0, i32 7
  %17 = load ptr, ptr %extents, align 8
  %18 = load i32, ptr %i, align 4
  %idxprom = sext i32 %18 to i64
  %arrayidx = getelementptr %struct.VmdkExtent, ptr %17, i64 %idxprom
  %file = getelementptr inbounds %struct.VmdkExtent, ptr %arrayidx, i32 0, i32 0
  %19 = load ptr, ptr %file, align 8
  %20 = load ptr, ptr %state.addr, align 8
  %bs21 = getelementptr inbounds %struct.BDRVReopenState, ptr %20, i32 0, i32 0
  %21 = load ptr, ptr %bs21, align 8
  %file22 = getelementptr inbounds %struct.BlockDriverState, ptr %21, i32 0, i32 31
  %22 = load ptr, ptr %file22, align 8
  %cmp23 = icmp eq ptr %19, %22
  %23 = load ptr, ptr %rs, align 8
  %extents_using_bs_file25 = getelementptr inbounds %struct.BDRVVmdkReopenState, ptr %23, i32 0, i32 0
  %24 = load ptr, ptr %extents_using_bs_file25, align 8
  %25 = load i32, ptr %i, align 4
  %idxprom26 = sext i32 %25 to i64
  %arrayidx27 = getelementptr i8, ptr %24, i64 %idxprom26
  %frombool = zext i1 %cmp23 to i8
  store i8 %frombool, ptr %arrayidx27, align 1
  br label %for.inc

for.inc:                                          ; preds = %for.body
  %26 = load i32, ptr %i, align 4
  %inc = add i32 %26, 1
  store i32 %inc, ptr %i, align 4
  br label %for.cond, !llvm.loop !5

for.end:                                          ; preds = %for.cond
  call void @glib_autoptr_cleanup_GraphLockableMainloop(ptr noundef %graph_lockable_auto4)
  ret i32 0
}