; Function Attrs: nounwind sspstrong uwtable
define internal noundef i32 @vmdk_reopen_prepare(ptr noundef %state, ptr readnone captures(none) %queue, ptr readnone captures(none) %errp) #0 {
entry:
  %call = tail call zeroext i1 @qemu_in_main_thread() #15
  br i1 %call, label %do.end, label %if.else

if.else:                                          ; preds = %entry
  tail call void @__assert_fail(ptr noundef nonnull @.str.23, ptr noundef nonnull @.str.24, i32 noundef 431, ptr noundef nonnull @__PRETTY_FUNCTION__.vmdk_reopen_prepare) #16
  unreachable

do.end:                                           ; preds = %entry
  tail call void @bdrv_graph_rdlock_main_loop() #15
  %cmp.not = icmp eq ptr %state, null
  br i1 %cmp.not, label %if.else3, label %if.end4

if.else3:                                         ; preds = %do.end
  tail call void @__assert_fail(ptr noundef nonnull @.str.25, ptr noundef nonnull @.str.24, i32 noundef 434, ptr noundef nonnull @__PRETTY_FUNCTION__.vmdk_reopen_prepare) #16
  unreachable

if.end4:                                          ; preds = %do.end
  %0 = load ptr, ptr %state, align 8
  %cmp5.not = icmp eq ptr %0, null
  br i1 %cmp5.not, label %if.else7, label %if.end8

if.else7:                                         ; preds = %if.end4
  tail call void @__assert_fail(ptr noundef nonnull @.str.26, ptr noundef nonnull @.str.24, i32 noundef 435, ptr noundef nonnull @__PRETTY_FUNCTION__.vmdk_reopen_prepare) #16
  unreachable

if.end8:                                          ; preds = %if.end4
  %opaque = getelementptr inbounds nuw i8, ptr %state, i64 56
  %1 = load ptr, ptr %opaque, align 8
  %cmp9 = icmp eq ptr %1, null
  br i1 %cmp9, label %if.end12, label %if.else11

if.else11:                                        ; preds = %if.end8
  tail call void @__assert_fail(ptr noundef nonnull @.str.27, ptr noundef nonnull @.str.24, i32 noundef 436, ptr noundef nonnull @__PRETTY_FUNCTION__.vmdk_reopen_prepare) #16
  unreachable

if.end12:                                         ; preds = %if.end8
  %opaque14 = getelementptr inbounds nuw i8, ptr %0, i64 24
  %2 = load ptr, ptr %opaque14, align 8
  %call15 = tail call noalias dereferenceable_or_null(8) ptr @g_malloc0_n(i64 noundef 1, i64 noundef 8) #17
  store ptr %call15, ptr %opaque, align 8
  %num_extents = getelementptr inbounds nuw i8, ptr %2, i64 68
  %3 = load i32, ptr %num_extents, align 4
  %conv = sext i32 %3 to i64
  %call17 = tail call noalias ptr @g_malloc_n(i64 noundef %conv, i64 noundef 1) #17
  store ptr %call17, ptr %call15, align 8
  %4 = load i32, ptr %num_extents, align 4
  %cmp1913 = icmp sgt i32 %4, 0
  br i1 %cmp1913, label %for.body.lr.ph, label %glib_autoptr_cleanup_GraphLockableMainloop.exit

for.body.lr.ph:                                   ; preds = %if.end12
  %extents = getelementptr inbounds nuw i8, ptr %2, i64 72
  br label %for.body

for.body:                                         ; preds = %for.body.lr.ph, %for.body
  %indvars.iv = phi i64 [ 0, %for.body.lr.ph ], [ %indvars.iv.next, %for.body ]
  %5 = load ptr, ptr %extents, align 8
  %arrayidx = getelementptr %struct.VmdkExtent, ptr %5, i64 %indvars.iv
  %6 = load ptr, ptr %arrayidx, align 8
  %7 = load ptr, ptr %state, align 8
  %file22 = getelementptr inbounds nuw i8, ptr %7, i64 16840
  %8 = load ptr, ptr %file22, align 8
  %cmp23 = icmp eq ptr %6, %8
  %9 = load ptr, ptr %call15, align 8
  %arrayidx27 = getelementptr i8, ptr %9, i64 %indvars.iv
  %frombool = zext i1 %cmp23 to i8
  store i8 %frombool, ptr %arrayidx27, align 1
  %indvars.iv.next = add nuw nsw i64 %indvars.iv, 1
  %10 = load i32, ptr %num_extents, align 4
  %11 = sext i32 %10 to i64
  %cmp19 = icmp slt i64 %indvars.iv.next, %11
  br i1 %cmp19, label %for.body, label %glib_autoptr_cleanup_GraphLockableMainloop.exit, !llvm.loop !5

glib_autoptr_cleanup_GraphLockableMainloop.exit:  ; preds = %for.body, %if.end12
  tail call void @bdrv_graph_rdunlock_main_loop() #15
  ret i32 0
}